target datalayout = "e-m:e-p270:32:32-p271:32:32-p272:64:64-i64:64-i128:128-f80:128-n8:16:32:64-S128"
target triple = "x86_64-pc-linux-gnu"

%struct.boxf = type { %struct.pointf_s, %struct.pointf_s }
%struct.pointf_s = type { double, double }

@Verbose = external global i8, align 1
@stderr = external global ptr, align 8
@.str.19 = private unnamed_addr constant [28 x i8] c"Packing: compute grid size\0A\00", align 1
@.str.20 = private unnamed_addr constant [26 x i8] c"a %f b %f c %f d %f r %f\0A\00", align 1
@.str.21 = private unnamed_addr constant [22 x i8] c"root %d (%f) %d (%f)\0A\00", align 1
@.str.22 = private unnamed_addr constant [14 x i8] c" r1 %f r2 %f\0A\00", align 1

; Function Attrs: nounwind uwtable
define internal i32 @computeStep(i64 noundef %0, ptr noundef %1, i32 noundef %2) #0 {
  %4 = alloca i64, align 8
  %5 = alloca ptr, align 8
  %6 = alloca i32, align 4
  %7 = alloca double, align 8
  %8 = alloca double, align 8
  %9 = alloca double, align 8
  %10 = alloca double, align 8
  %11 = alloca double, align 8
  %12 = alloca double, align 8
  %13 = alloca double, align 8
  %14 = alloca double, align 8
  %15 = alloca double, align 8
  %16 = alloca i32, align 4
  %17 = alloca i64, align 8
  %18 = alloca %struct.boxf, align 8
  store i64 %0, ptr %4, align 8, !tbaa !3
  store ptr %1, ptr %5, align 8, !tbaa !12
  store i32 %2, ptr %6, align 4, !tbaa !35
  call void @llvm.lifetime.start.p0(i64 8, ptr %7) #12
  call void @llvm.lifetime.start.p0(i64 8, ptr %8) #12
  call void @llvm.lifetime.start.p0(i64 8, ptr %9) #12
  call void @llvm.lifetime.start.p0(i64 8, ptr %10) #12
  call void @llvm.lifetime.start.p0(i64 8, ptr %11) #12
  call void @llvm.lifetime.start.p0(i64 8, ptr %12) #12
  call void @llvm.lifetime.start.p0(i64 8, ptr %13) #12
  call void @llvm.lifetime.start.p0(i64 8, ptr %14) #12
  call void @llvm.lifetime.start.p0(i64 8, ptr %15) #12
  call void @llvm.lifetime.start.p0(i64 4, ptr %16) #12
  %19 = load i64, ptr %4, align 8, !tbaa !3
  %20 = uitofp i64 %19 to double
  %21 = call double @llvm.fmuladd.f64(double 1.000000e+02, double %20, double -1.000000e+00)
  store double %21, ptr %9, align 8, !tbaa !27
  store double 0.000000e+00, ptr %11, align 8, !tbaa !27
  store double 0.000000e+00, ptr %10, align 8, !tbaa !27
  call void @llvm.lifetime.start.p0(i64 8, ptr %17) #12
  store i64 0, ptr %17, align 8, !tbaa !3
  br label %22

22:                                               ; preds = %63, %3
  %23 = load i64, ptr %17, align 8, !tbaa !3
  %24 = load i64, ptr %4, align 8, !tbaa !3
  %25 = icmp ult i64 %23, %24
  br i1 %25, label %27, label %26

26:                                               ; preds = %22
  call void @llvm.lifetime.end.p0(i64 8, ptr %17) #12
  br label %66

27:                                               ; preds = %22
  call void @llvm.lifetime.start.p0(i64 32, ptr %18) #12
  %28 = load ptr, ptr %5, align 8, !tbaa !12
  %29 = load i64, ptr %17, align 8, !tbaa !3
  %30 = getelementptr inbounds nuw %struct.boxf, ptr %28, i64 %29
  call void @llvm.memcpy.p0.p0.i64(ptr align 8 %18, ptr align 8 %30, i64 32, i1 false), !tbaa.struct !26
  %31 = getelementptr inbounds nuw %struct.boxf, ptr %18, i32 0, i32 1
  %32 = getelementptr inbounds nuw %struct.pointf_s, ptr %31, i32 0, i32 0
  %33 = load double, ptr %32, align 8, !tbaa !64
  %34 = getelementptr inbounds nuw %struct.boxf, ptr %18, i32 0, i32 0
  %35 = getelementptr inbounds nuw %struct.pointf_s, ptr %34, i32 0, i32 0
  %36 = load double, ptr %35, align 8, !tbaa !62
  %37 = fsub double %33, %36
  %38 = load i32, ptr %6, align 4, !tbaa !35
  %39 = mul i32 2, %38
  %40 = uitofp i32 %39 to double
  %41 = fadd double %37, %40
  store double %41, ptr %14, align 8, !tbaa !27
  %42 = getelementptr inbounds nuw %struct.boxf, ptr %18, i32 0, i32 1
  %43 = getelementptr inbounds nuw %struct.pointf_s, ptr %42, i32 0, i32 1
  %44 = load double, ptr %43, align 8, !tbaa !65
  %45 = getelementptr inbounds nuw %struct.boxf, ptr %18, i32 0, i32 0
  %46 = getelementptr inbounds nuw %struct.pointf_s, ptr %45, i32 0, i32 1
  %47 = load double, ptr %46, align 8, !tbaa !63
  %48 = fsub double %44, %47
  %49 = load i32, ptr %6, align 4, !tbaa !35
  %50 = mul i32 2, %49
  %51 = uitofp i32 %50 to double
  %52 = fadd double %48, %51
  store double %52, ptr %15, align 8, !tbaa !27
  %53 = load double, ptr %14, align 8, !tbaa !27
  %54 = load double, ptr %15, align 8, !tbaa !27
  %55 = fadd double %53, %54
  %56 = load double, ptr %10, align 8, !tbaa !27
  %57 = fsub double %56, %55
  store double %57, ptr %10, align 8, !tbaa !27
  %58 = load double, ptr %14, align 8, !tbaa !27
  %59 = load double, ptr %15, align 8, !tbaa !27
  %60 = load double, ptr %11, align 8, !tbaa !27
  %61 = fneg double %58
  %62 = call double @llvm.fmuladd.f64(double %61, double %59, double %60)
  store double %62, ptr %11, align 8, !tbaa !27
  call void @llvm.lifetime.end.p0(i64 32, ptr %18) #12
  br label %63

63:                                               ; preds = %27
  %64 = load i64, ptr %17, align 8, !tbaa !3
  %65 = add i64 %64, 1
  store i64 %65, ptr %17, align 8, !tbaa !3
  br label %22, !llvm.loop !157

66:                                               ; preds = %26
  %67 = load double, ptr %10, align 8, !tbaa !27
  %68 = load double, ptr %10, align 8, !tbaa !27
  %69 = load double, ptr %9, align 8, !tbaa !27
  %70 = fmul double 4.000000e+00, %69
  %71 = load double, ptr %11, align 8, !tbaa !27
  %72 = fmul double %70, %71
  %73 = fneg double %72
  %74 = call double @llvm.fmuladd.f64(double %67, double %68, double %73)
  store double %74, ptr %12, align 8, !tbaa !27
  %75 = load double, ptr %12, align 8, !tbaa !27
  %76 = call double @sqrt(double noundef %75) #12, !tbaa !35
  store double %76, ptr %13, align 8, !tbaa !27
  %77 = load double, ptr %10, align 8, !tbaa !27
  %78 = fneg double %77
  %79 = load double, ptr %13, align 8, !tbaa !27
  %80 = fadd double %78, %79
  %81 = load double, ptr %9, align 8, !tbaa !27
  %82 = fmul double 2.000000e+00, %81
  %83 = fdiv double %80, %82
  store double %83, ptr %7, align 8, !tbaa !27
  %84 = load double, ptr %10, align 8, !tbaa !27
  %85 = fneg double %84
  %86 = load double, ptr %13, align 8, !tbaa !27
  %87 = fsub double %85, %86
  %88 = load double, ptr %9, align 8, !tbaa !27
  %89 = fmul double 2.000000e+00, %88
  %90 = fdiv double %87, %89
  store double %90, ptr %8, align 8, !tbaa !27
  %91 = load double, ptr %7, align 8, !tbaa !27
  %92 = fptosi double %91 to i32
  store i32 %92, ptr %16, align 4, !tbaa !35
  %93 = load i32, ptr %16, align 4, !tbaa !35
  %94 = icmp eq i32 %93, 0
  br i1 %94, label %95, label %96

95:                                               ; preds = %66
  store i32 1, ptr %16, align 4, !tbaa !35
  br label %96

96:                                               ; preds = %95, %66
  %97 = load i8, ptr @Verbose, align 1, !tbaa !66
  %98 = zext i8 %97 to i32
  %99 = icmp sgt i32 %98, 2
  br i1 %99, label %100, label %139

100:                                              ; preds = %96
  %101 = load ptr, ptr @stderr, align 8, !tbaa !67
  %102 = call i32 (ptr, ptr, ...) @fprintf(ptr noundef %101, ptr noundef @.str.19) #12
  %103 = load ptr, ptr @stderr, align 8, !tbaa !67
  %104 = load double, ptr %9, align 8, !tbaa !27
  %105 = load double, ptr %10, align 8, !tbaa !27
  %106 = load double, ptr %11, align 8, !tbaa !27
  %107 = load double, ptr %12, align 8, !tbaa !27
  %108 = load double, ptr %13, align 8, !tbaa !27
  %109 = call i32 (ptr, ptr, ...) @fprintf(ptr noundef %103, ptr noundef @.str.20, double noundef %104, double noundef %105, double noundef %106, double noundef %107, double noundef %108) #12
  %110 = load ptr, ptr @stderr, align 8, !tbaa !67
  %111 = load i32, ptr %16, align 4, !tbaa !35
  %112 = load double, ptr %7, align 8, !tbaa !27
  %113 = load double, ptr %8, align 8, !tbaa !27
  %114 = fptosi double %113 to i32
  %115 = load double, ptr %8, align 8, !tbaa !27
  %116 = call i32 (ptr, ptr, ...) @fprintf(ptr noundef %110, ptr noundef @.str.21, i32 noundef %111, double noundef %112, i32 noundef %114, double noundef %115) #12
  %117 = load ptr, ptr @stderr, align 8, !tbaa !67
  %118 = load double, ptr %9, align 8, !tbaa !27
  %119 = load double, ptr %7, align 8, !tbaa !27
  %120 = fmul double %118, %119
  %121 = load double, ptr %7, align 8, !tbaa !27
  %122 = load double, ptr %10, align 8, !tbaa !27
  %123 = load double, ptr %7, align 8, !tbaa !27
  %124 = fmul double %122, %123
  %125 = call double @llvm.fmuladd.f64(double %120, double %121, double %124)
  %126 = load double, ptr %11, align 8, !tbaa !27
  %127 = fadd double %125, %126
  %128 = load double, ptr %9, align 8, !tbaa !27
  %129 = load double, ptr %8, align 8, !tbaa !27
  %130 = fmul double %128, %129
  %131 = load double, ptr %8, align 8, !tbaa !27
  %132 = load double, ptr %10, align 8, !tbaa !27
  %133 = load double, ptr %8, align 8, !tbaa !27
  %134 = fmul double %132, %133
  %135 = call double @llvm.fmuladd.f64(double %130, double %131, double %134)
  %136 = load double, ptr %11, align 8, !tbaa !27
  %137 = fadd double %135, %136
  %138 = call i32 (ptr, ptr, ...) @fprintf(ptr noundef %117, ptr noundef @.str.22, double noundef %127, double noundef %137) #12
  br label %139

139:                                              ; preds = %100, %96
  %140 = load i32, ptr %16, align 4, !tbaa !35
  call void @llvm.lifetime.end.p0(i64 4, ptr %16) #12
  call void @llvm.lifetime.end.p0(i64 8, ptr %15) #12
  call void @llvm.lifetime.end.p0(i64 8, ptr %14) #12
  call void @llvm.lifetime.end.p0(i64 8, ptr %13) #12
  call void @llvm.lifetime.end.p0(i64 8, ptr %12) #12
  call void @llvm.lifetime.end.p0(i64 8, ptr %11) #12
  call void @llvm.lifetime.end.p0(i64 8, ptr %10) #12
  call void @llvm.lifetime.end.p0(i64 8, ptr %9) #12
  call void @llvm.lifetime.end.p0(i64 8, ptr %8) #12
  call void @llvm.lifetime.end.p0(i64 8, ptr %7) #12
  ret i32 %140
}