; Function Attrs: nofree nounwind uwtable
define internal fastcc range(i32 1, 0) i32 @computeStep(i64 noundef range(i64 1, 0) %0, ptr noundef readonly captures(none) %1, i32 noundef %2) unnamed_addr #7 {
  %4 = uitofp i64 %0 to double
  %5 = shl i32 %2, 1
  %6 = uitofp i32 %5 to double
  br label %20

7:                                                ; preds = %20
  %8 = tail call double @llvm.fmuladd.f64(double %4, double 1.000000e+02, double -1.000000e+00)
  %9 = fmul double %8, 4.000000e+00
  %10 = fneg double %29
  %11 = fmul double %9, %10
  %12 = tail call double @llvm.fmuladd.f64(double %27, double %27, double %11)
  %13 = tail call double @sqrt(double noundef %12) #19, !tbaa !108
  %14 = fsub double %13, %27
  %15 = fmul double %8, 2.000000e+00
  %16 = fdiv double %14, %15
  %17 = fptosi double %16 to i32
  %spec.store.select = tail call i32 @llvm.umax.i32(i32 %17, i32 1)
  %18 = load i8, ptr @Verbose, align 1, !tbaa !47
  %19 = icmp ugt i8 %18, 2
  br i1 %19, label %31, label %52

20:                                               ; preds = %3, %20
  %.052 = phi double [ 0.000000e+00, %3 ], [ %27, %20 ]
  %.04851 = phi double [ 0.000000e+00, %3 ], [ %29, %20 ]
  %.04950 = phi i64 [ 0, %3 ], [ %30, %20 ]
  %21 = getelementptr inbounds nuw %struct.boxf, ptr %1, i64 %.04950
  %.sroa.0.0.copyload = load double, ptr %21, align 8, !tbaa !52
  %.sroa.4.0..sroa_idx = getelementptr inbounds nuw i8, ptr %21, i64 8
  %.sroa.4.0.copyload = load double, ptr %.sroa.4.0..sroa_idx, align 8, !tbaa !52
  %.sroa.5.0..sroa_idx = getelementptr inbounds nuw i8, ptr %21, i64 16
  %.sroa.5.0.copyload = load double, ptr %.sroa.5.0..sroa_idx, align 8, !tbaa !52
  %.sroa.6.0..sroa_idx = getelementptr inbounds nuw i8, ptr %21, i64 24
  %.sroa.6.0.copyload = load double, ptr %.sroa.6.0..sroa_idx, align 8, !tbaa !52
  %22 = fsub double %.sroa.5.0.copyload, %.sroa.0.0.copyload
  %23 = fadd double %22, %6
  %24 = fsub double %.sroa.6.0.copyload, %.sroa.4.0.copyload
  %25 = fadd double %24, %6
  %26 = fadd double %23, %25
  %27 = fsub double %.052, %26
  %28 = fneg double %23
  %29 = tail call double @llvm.fmuladd.f64(double %28, double %25, double %.04851)
  %30 = add nuw i64 %.04950, 1
  %exitcond.not = icmp eq i64 %30, %0
  br i1 %exitcond.not, label %7, label %20, !llvm.loop !166

31:                                               ; preds = %7
  %32 = fneg double %27
  %33 = fsub double %32, %13
  %34 = fdiv double %33, %15
  %35 = load ptr, ptr @stderr, align 8, !tbaa !14
  %36 = tail call i64 @fwrite(ptr nonnull @.str.19, i64 27, i64 1, ptr %35) #24
  %37 = load ptr, ptr @stderr, align 8, !tbaa !14
  %38 = tail call i32 (ptr, ptr, ...) @fprintf(ptr noundef %37, ptr noundef nonnull @.str.20, double noundef %8, double noundef %27, double noundef %29, double noundef %12, double noundef %13) #20
  %39 = load ptr, ptr @stderr, align 8, !tbaa !14
  %40 = fptosi double %34 to i32
  %41 = tail call i32 (ptr, ptr, ...) @fprintf(ptr noundef %39, ptr noundef nonnull @.str.21, i32 noundef %spec.store.select, double noundef %16, i32 noundef %40, double noundef %34) #20
  %42 = load ptr, ptr @stderr, align 8, !tbaa !14
  %43 = fmul double %8, %16
  %44 = fmul double %27, %16
  %45 = tail call double @llvm.fmuladd.f64(double %43, double %16, double %44)
  %46 = fadd double %29, %45
  %47 = fmul double %8, %34
  %48 = fmul double %27, %34
  %49 = tail call double @llvm.fmuladd.f64(double %47, double %34, double %48)
  %50 = fadd double %29, %49
  %51 = tail call i32 (ptr, ptr, ...) @fprintf(ptr noundef %42, ptr noundef nonnull @.str.22, double noundef %46, double noundef %50) #20
  br label %52

52:                                               ; preds = %31, %7
  ret i32 %spec.store.select
}